target datalayout = "e-m:e-p270:32:32-p271:32:32-p272:64:64-i64:64-i128:128-f80:128-n8:16:32:64-S128"
target triple = "x86_64-pc-linux-gnu"

%struct.ui_string_st = type { i32, ptr, i32, ptr, i64, %union.anon, i32 }
%union.anon = type { %struct.anon.0 }
%struct.anon.0 = type { ptr, ptr, ptr }

@.str = private unnamed_addr constant [30 x i8] c"../openssl/crypto/ui/ui_lib.c\00", align 1
@__func__.general_allocate_prompt = private unnamed_addr constant [24 x i8] c"general_allocate_prompt\00", align 1

; Function Attrs: nounwind uwtable
define internal ptr @general_allocate_prompt(ptr noundef %0, ptr noundef %1, i32 noundef %2, i32 noundef %3, i32 noundef %4, ptr noundef %5) #0 {
  %7 = alloca ptr, align 8
  %8 = alloca ptr, align 8
  %9 = alloca i32, align 4
  %10 = alloca i32, align 4
  %11 = alloca i32, align 4
  %12 = alloca ptr, align 8
  %13 = alloca ptr, align 8
  store ptr %0, ptr %7, align 8, !tbaa !8
  store ptr %1, ptr %8, align 8, !tbaa !34
  store i32 %2, ptr %9, align 4, !tbaa !35
  store i32 %3, ptr %10, align 4, !tbaa !35
  store i32 %4, ptr %11, align 4, !tbaa !35
  store ptr %5, ptr %12, align 8, !tbaa !34
  call void @llvm.lifetime.start.p0(i64 8, ptr %13) #7
  store ptr null, ptr %13, align 8, !tbaa !26
  %14 = load ptr, ptr %8, align 8, !tbaa !34
  %15 = icmp eq ptr %14, null
  br i1 %15, label %16, label %17

16:                                               ; preds = %6
  call void @ERR_new()
  call void @ERR_set_debug(ptr noundef @.str, i32 noundef 103, ptr noundef @__func__.general_allocate_prompt)
  call void (i32, i32, ptr, ...) @ERR_set_error(i32 noundef 40, i32 noundef 786690, ptr noundef null)
  br label %53

17:                                               ; preds = %6
  %18 = load i32, ptr %10, align 4, !tbaa !35
  %19 = icmp eq i32 %18, 1
  br i1 %19, label %26, label %20

20:                                               ; preds = %17
  %21 = load i32, ptr %10, align 4, !tbaa !35
  %22 = icmp eq i32 %21, 2
  br i1 %22, label %26, label %23

23:                                               ; preds = %20
  %24 = load i32, ptr %10, align 4, !tbaa !35
  %25 = icmp eq i32 %24, 3
  br i1 %25, label %26, label %30

26:                                               ; preds = %23, %20, %17
  %27 = load ptr, ptr %12, align 8, !tbaa !34
  %28 = icmp eq ptr %27, null
  br i1 %28, label %29, label %30

29:                                               ; preds = %26
  call void @ERR_new()
  call void @ERR_set_debug(ptr noundef @.str, i32 noundef 106, ptr noundef @__func__.general_allocate_prompt)
  call void (i32, i32, ptr, ...) @ERR_set_error(i32 noundef 40, i32 noundef 105, ptr noundef null)
  br label %52

30:                                               ; preds = %26, %23
  %31 = call noalias ptr @CRYPTO_zalloc(i64 noundef 72, ptr noundef @.str, i32 noundef 107)
  store ptr %31, ptr %13, align 8, !tbaa !26
  %32 = icmp ne ptr %31, null
  br i1 %32, label %33, label %51

33:                                               ; preds = %30
  %34 = load ptr, ptr %8, align 8, !tbaa !34
  %35 = load ptr, ptr %13, align 8, !tbaa !26
  %36 = getelementptr inbounds nuw %struct.ui_string_st, ptr %35, i32 0, i32 1
  store ptr %34, ptr %36, align 8, !tbaa !31
  %37 = load i32, ptr %9, align 4, !tbaa !35
  %38 = icmp ne i32 %37, 0
  %39 = select i1 %38, i32 1, i32 0
  %40 = load ptr, ptr %13, align 8, !tbaa !26
  %41 = getelementptr inbounds nuw %struct.ui_string_st, ptr %40, i32 0, i32 6
  store i32 %39, ptr %41, align 8, !tbaa !28
  %42 = load i32, ptr %11, align 4, !tbaa !35
  %43 = load ptr, ptr %13, align 8, !tbaa !26
  %44 = getelementptr inbounds nuw %struct.ui_string_st, ptr %43, i32 0, i32 2
  store i32 %42, ptr %44, align 8, !tbaa !51
  %45 = load i32, ptr %10, align 4, !tbaa !35
  %46 = load ptr, ptr %13, align 8, !tbaa !26
  %47 = getelementptr inbounds nuw %struct.ui_string_st, ptr %46, i32 0, i32 0
  store i32 %45, ptr %47, align 8, !tbaa !32
  %48 = load ptr, ptr %12, align 8, !tbaa !34
  %49 = load ptr, ptr %13, align 8, !tbaa !26
  %50 = getelementptr inbounds nuw %struct.ui_string_st, ptr %49, i32 0, i32 3
  store ptr %48, ptr %50, align 8, !tbaa !40
  br label %51

51:                                               ; preds = %33, %30
  br label %52

52:                                               ; preds = %51, %29
  br label %53

53:                                               ; preds = %52, %16
  %54 = load ptr, ptr %13, align 8, !tbaa !26
  call void @llvm.lifetime.end.p0(i64 8, ptr %13) #7
  ret ptr %54
}