; Function Attrs: nounwind uwtable
define internal fastcc noalias ptr @general_allocate_prompt(ptr noundef %0, i32 noundef range(i32 0, 2) %1, i32 noundef range(i32 1, 6) %2, i32 noundef %3, ptr noundef %4) unnamed_addr #0 {
  %6 = icmp eq ptr %0, null
  br i1 %6, label %7, label %8

7:                                                ; preds = %5
  tail call void @ERR_new() #8
  tail call void @ERR_set_debug(ptr noundef nonnull @.str, i32 noundef 103, ptr noundef nonnull @__func__.general_allocate_prompt) #8
  tail call void (i32, i32, ptr, ...) @ERR_set_error(i32 noundef 40, i32 noundef 786690, ptr noundef null) #8
  br label %18

8:                                                ; preds = %5
  %or.cond3 = icmp samesign ult i32 %2, 4
  %9 = icmp eq ptr %4, null
  %or.cond5 = and i1 %or.cond3, %9
  br i1 %or.cond5, label %10, label %11

10:                                               ; preds = %8
  tail call void @ERR_new() #8
  tail call void @ERR_set_debug(ptr noundef nonnull @.str, i32 noundef 106, ptr noundef nonnull @__func__.general_allocate_prompt) #8
  tail call void (i32, i32, ptr, ...) @ERR_set_error(i32 noundef 40, i32 noundef 105, ptr noundef null) #8
  br label %18

11:                                               ; preds = %8
  %12 = tail call noalias ptr @CRYPTO_zalloc(i64 noundef 72, ptr noundef nonnull @.str, i32 noundef 107) #8
  %.not = icmp eq ptr %12, null
  br i1 %.not, label %18, label %13

13:                                               ; preds = %11
  %14 = getelementptr inbounds nuw i8, ptr %12, i64 8
  store ptr %0, ptr %14, align 8, !tbaa !24
  %15 = getelementptr inbounds nuw i8, ptr %12, i64 64
  store i32 %1, ptr %15, align 8, !tbaa !21
  %16 = getelementptr inbounds nuw i8, ptr %12, i64 16
  store i32 %3, ptr %16, align 8, !tbaa !41
  store i32 %2, ptr %12, align 8, !tbaa !25
  %17 = getelementptr inbounds nuw i8, ptr %12, i64 24
  store ptr %4, ptr %17, align 8, !tbaa !31
  br label %18

18:                                               ; preds = %10, %13, %11, %7
  %.0 = phi ptr [ null, %7 ], [ null, %10 ], [ %12, %13 ], [ null, %11 ]
  ret ptr %.0
}